target datalayout = "e-m:e-p270:32:32-p271:32:32-p272:64:64-i64:64-i128:128-f80:128-n8:16:32:64-S128"
target triple = "x86_64-pc-linux-gnu"

@stderr = external global ptr, align 8
@.str.5 = private unnamed_addr constant [34 x i8] c"libunwind: __unw_step(cursor=%p)\0A\00", align 1
@_ZZ7logAPIsE7checked = internal global i8 0, align 1
@_ZZ7logAPIsE3log = internal global i8 0, align 1
@.str.15 = private unnamed_addr constant [21 x i8] c"LIBUNWIND_PRINT_APIS\00", align 1

; Function Attrs: mustprogress nounwind uwtable
define hidden zeroext i1 @logAPIs() #0 {
  %1 = load i8, ptr @_ZZ7logAPIsE7checked, align 1, !tbaa !19, !range !21, !noundef !22
  %2 = trunc i8 %1 to i1
  br i1 %2, label %7, label %3

3:                                                ; preds = %0
  %4 = call ptr @getenv(ptr noundef @.str.15) #9
  %5 = icmp ne ptr %4, null
  %6 = zext i1 %5 to i8
  store i8 %6, ptr @_ZZ7logAPIsE3log, align 1, !tbaa !19
  store i8 1, ptr @_ZZ7logAPIsE7checked, align 1, !tbaa !19
  br label %7

7:                                                ; preds = %3, %0
  %8 = load i8, ptr @_ZZ7logAPIsE3log, align 1, !tbaa !19, !range !21, !noundef !22
  %9 = trunc i8 %8 to i1
  ret i1 %9
}

; Function Attrs: mustprogress nounwind uwtable
define hidden i32 @__unw_step(ptr noundef %0) #0 {
  %2 = alloca ptr, align 8
  %3 = alloca ptr, align 8
  store ptr %0, ptr %2, align 8, !tbaa !6
  br label %4

4:                                                ; preds = %1
  %5 = call zeroext i1 @logAPIs()
  br i1 %5, label %6, label %14

6:                                                ; preds = %4
  br label %7

7:                                                ; preds = %6
  %8 = load ptr, ptr @stderr, align 8, !tbaa !13
  %9 = load ptr, ptr %2, align 8, !tbaa !6
  %10 = call i32 (ptr, ptr, ...) @fprintf(ptr noundef %8, ptr noundef @.str.5, ptr noundef %9) #9
  %11 = load ptr, ptr @stderr, align 8, !tbaa !13
  %12 = call i32 @fflush(ptr noundef %11)
  br label %13

13:                                               ; preds = %7
  br label %14

14:                                               ; preds = %13, %4
  br label %15

15:                                               ; preds = %14
  call void @llvm.lifetime.start.p0(i64 8, ptr %3) #9
  %16 = load ptr, ptr %2, align 8, !tbaa !6
  store ptr %16, ptr %3, align 8, !tbaa !15
  %17 = load ptr, ptr %3, align 8, !tbaa !15
  %18 = load ptr, ptr %17, align 8, !tbaa !17
  %19 = getelementptr inbounds ptr, ptr %18, i64 8
  %20 = load ptr, ptr %19, align 8
  %21 = call noundef i32 %20(ptr noundef nonnull align 8 dereferenceable(8) %17, i1 noundef zeroext false)
  call void @llvm.lifetime.end.p0(i64 8, ptr %3) #9
  ret i32 %21
}