; Function Attrs: mustprogress nounwind uwtable
define hidden noundef i32 @__unw_step(ptr noundef %0) #0 {
  %.b1.i = load i1, ptr @_ZZ7logAPIsE7checked, align 1
  br i1 %.b1.i, label %._crit_edge.i, label %logAPIs.exit

._crit_edge.i:                                    ; preds = %1
  %.pre.i = load i8, ptr @_ZZ7logAPIsE3log, align 1, !tbaa !6, !range !10
  %2 = trunc nuw i8 %.pre.i to i1
  br i1 %2, label %6, label %11

logAPIs.exit:                                     ; preds = %1
  %3 = tail call ptr @getenv(ptr noundef nonnull @.str.15) #15
  %4 = icmp ne ptr %3, null
  %5 = zext i1 %4 to i8
  store i8 %5, ptr @_ZZ7logAPIsE3log, align 1, !tbaa !6
  store i1 true, ptr @_ZZ7logAPIsE7checked, align 1
  br i1 %4, label %6, label %11

6:                                                ; preds = %._crit_edge.i, %logAPIs.exit
  %7 = load ptr, ptr @stderr, align 8, !tbaa !11
  %8 = tail call i32 (ptr, ptr, ...) @fprintf(ptr noundef %7, ptr noundef nonnull @.str.5, ptr noundef %0) #16
  %9 = load ptr, ptr @stderr, align 8, !tbaa !11
  %10 = tail call i32 @fflush(ptr noundef %9)
  br label %11

11:                                               ; preds = %._crit_edge.i, %logAPIs.exit, %6
  %12 = load ptr, ptr %0, align 8, !tbaa !14
  %13 = getelementptr inbounds nuw i8, ptr %12, i64 64
  %14 = load ptr, ptr %13, align 8
  %15 = tail call noundef i32 %14(ptr noundef nonnull align 8 dereferenceable(8) %0, i1 noundef zeroext false) #15
  ret i32 %15
}